target datalayout = "e-m:e-p270:32:32-p271:32:32-p272:64:64-i64:64-i128:128-f80:128-n8:16:32:64-S128"
target triple = "x86_64-pc-linux-gnu"

@H5SL_init_g = global i8 0, align 1
@H5_libterm_g = external global i8, align 1
@.str = private unnamed_addr constant [98 x i8] c"generated/home/dtcxzyw/WorkSpace/Projects/compilers/llvm-opt-benchmark/bench/hdf5/hdf5/src/H5SL.c\00", align 1
@H5E_FUNC_g = external global i64, align 8
@H5E_CANTINIT_g = external global i64, align 8
@.str.1 = private unnamed_addr constant [32 x i8] c"interface initialization failed\00", align 1
@H5E_SLIST_g = external global i64, align 8
@H5E_CANTFREE_g = external global i64, align 8
@.str.4 = private unnamed_addr constant [30 x i8] c"can't release skip list nodes\00", align 1
@__func__.H5SL_free = private unnamed_addr constant [10 x i8] c"H5SL_free\00", align 1

; Function Attrs: nounwind uwtable
define i32 @H5SL_free(ptr noundef %0, ptr noundef %1, ptr noundef %2) #0 {
  %4 = alloca ptr, align 8
  %5 = alloca ptr, align 8
  %6 = alloca ptr, align 8
  %7 = alloca i32, align 4
  %8 = alloca i8, align 1
  store ptr %0, ptr %4, align 8, !tbaa !21
  store ptr %1, ptr %5, align 8, !tbaa !20
  store ptr %2, ptr %6, align 8, !tbaa !20
  call void @llvm.lifetime.start.p0(i64 4, ptr %7) #8
  store i32 0, ptr %7, align 4, !tbaa !16
  call void @llvm.lifetime.start.p0(i64 1, ptr %8) #8
  store i8 0, ptr %8, align 1, !tbaa !3
  %9 = load i8, ptr @H5SL_init_g, align 1, !tbaa !3, !range !7, !noundef !8
  %10 = trunc i8 %9 to i1
  br i1 %10, label %15, label %11

11:                                               ; preds = %3
  %12 = load i8, ptr @H5_libterm_g, align 1, !tbaa !3, !range !7, !noundef !8
  %13 = trunc i8 %12 to i1
  %14 = xor i1 %13, true
  br label %15

15:                                               ; preds = %11, %3
  %16 = phi i1 [ false, %3 ], [ %14, %11 ]
  %17 = xor i1 %16, true
  %18 = xor i1 %17, true
  %19 = zext i1 %18 to i32
  %20 = sext i32 %19 to i64
  %21 = call i64 @llvm.expect.i64(i64 %20, i64 0)
  %22 = icmp ne i64 %21, 0
  br i1 %22, label %23, label %46

23:                                               ; preds = %15
  store i8 1, ptr @H5SL_init_g, align 1, !tbaa !3
  %24 = call i32 @H5SL__init_package()
  %25 = icmp slt i32 %24, 0
  br i1 %25, label %26, label %45

26:                                               ; preds = %23
  store i8 0, ptr @H5SL_init_g, align 1, !tbaa !3
  br label %27

27:                                               ; preds = %26
  br label %28

28:                                               ; preds = %27
  br label %29

29:                                               ; preds = %28
  %30 = load i64, ptr @H5E_FUNC_g, align 8, !tbaa !12
  %31 = load i64, ptr @H5E_CANTINIT_g, align 8, !tbaa !12
  %32 = call i32 (ptr, ptr, i32, i64, i64, ptr, ...) @H5E_printf_stack(ptr noundef @.str, ptr noundef @__func__.H5SL_free, i32 noundef 2188, i64 noundef %30, i64 noundef %31, ptr noundef @.str.1)
  br label %33

33:                                               ; preds = %29
  br label %34

34:                                               ; preds = %33
  store i8 1, ptr %8, align 1, !tbaa !3
  %35 = load i8, ptr %8, align 1, !tbaa !3, !range !7, !noundef !8
  %36 = trunc i8 %35 to i1
  %37 = zext i1 %36 to i8
  store i8 %37, ptr %8, align 1, !tbaa !3
  br label %38

38:                                               ; preds = %34
  br label %39

39:                                               ; preds = %38
  br label %40

40:                                               ; preds = %39
  store i32 -1, ptr %7, align 4, !tbaa !16
  br label %87

41:                                               ; No predecessors!
  br label %42

42:                                               ; preds = %41
  br label %43

43:                                               ; preds = %42
  br label %44

44:                                               ; preds = %43
  br label %45

45:                                               ; preds = %44, %23
  br label %46

46:                                               ; preds = %45, %15
  %47 = load i8, ptr @H5SL_init_g, align 1, !tbaa !3, !range !7, !noundef !8
  %48 = trunc i8 %47 to i1
  br i1 %48, label %53, label %49

49:                                               ; preds = %46
  %50 = load i8, ptr @H5_libterm_g, align 1, !tbaa !3, !range !7, !noundef !8
  %51 = trunc i8 %50 to i1
  %52 = xor i1 %51, true
  br label %53

53:                                               ; preds = %49, %46
  %54 = phi i1 [ true, %46 ], [ %52, %49 ]
  %55 = xor i1 %54, true
  %56 = xor i1 %55, true
  %57 = zext i1 %56 to i32
  %58 = sext i32 %57 to i64
  %59 = call i64 @llvm.expect.i64(i64 %58, i64 1)
  %60 = icmp ne i64 %59, 0
  br i1 %60, label %61, label %88

61:                                               ; preds = %53
  %62 = load ptr, ptr %4, align 8, !tbaa !21
  %63 = load ptr, ptr %5, align 8, !tbaa !20
  %64 = load ptr, ptr %6, align 8, !tbaa !20
  %65 = call i32 @H5SL__release_common(ptr noundef %62, ptr noundef %63, ptr noundef %64)
  %66 = icmp slt i32 %65, 0
  br i1 %66, label %67, label %86

67:                                               ; preds = %61
  br label %68

68:                                               ; preds = %67
  br label %69

69:                                               ; preds = %68
  br label %70

70:                                               ; preds = %69
  %71 = load i64, ptr @H5E_SLIST_g, align 8, !tbaa !12
  %72 = load i64, ptr @H5E_CANTFREE_g, align 8, !tbaa !12
  %73 = call i32 (ptr, ptr, i32, i64, i64, ptr, ...) @H5E_printf_stack(ptr noundef @.str, ptr noundef @__func__.H5SL_free, i32 noundef 2198, i64 noundef %71, i64 noundef %72, ptr noundef @.str.4)
  br label %74

74:                                               ; preds = %70
  br label %75

75:                                               ; preds = %74
  store i8 1, ptr %8, align 1, !tbaa !3
  %76 = load i8, ptr %8, align 1, !tbaa !3, !range !7, !noundef !8
  %77 = trunc i8 %76 to i1
  %78 = zext i1 %77 to i8
  store i8 %78, ptr %8, align 1, !tbaa !3
  br label %79

79:                                               ; preds = %75
  br label %80

80:                                               ; preds = %79
  br label %81

81:                                               ; preds = %80
  store i32 -1, ptr %7, align 4, !tbaa !16
  br label %87

82:                                               ; No predecessors!
  br label %83

83:                                               ; preds = %82
  br label %84

84:                                               ; preds = %83
  br label %85

85:                                               ; preds = %84
  br label %86

86:                                               ; preds = %85, %61
  br label %87

87:                                               ; preds = %86, %81, %40
  br label %88

88:                                               ; preds = %87, %53
  %89 = load i32, ptr %7, align 4, !tbaa !16
  call void @llvm.lifetime.end.p0(i64 1, ptr %8) #8
  call void @llvm.lifetime.end.p0(i64 4, ptr %7) #8
  ret i32 %89
}