; Function Attrs: nounwind uwtable
define range(i32 -1, 1) i32 @H5SL_free(ptr noundef captures(none) %0, ptr noundef captures(address_is_null) %1, ptr noundef %2) local_unnamed_addr #0 {
  %4 = load i8, ptr @H5SL_init_g, align 1, !tbaa !3, !range !7, !noundef !8
  %5 = trunc nuw i8 %4 to i1
  %6 = load i8, ptr @H5_libterm_g, align 1, !range !7
  %7 = trunc nuw i8 %6 to i1
  %8 = select i1 %5, i1 true, i1 %7
  br i1 %8, label %11, label %9, !prof !9

9:                                                ; preds = %3
  store i8 1, ptr @H5SL_init_g, align 1, !tbaa !3
  %10 = tail call i32 @H5SL__init_package()
  %.pre = load i8, ptr @H5SL_init_g, align 1, !tbaa !3, !range !7
  %.pre5 = load i8, ptr @H5_libterm_g, align 1, !range !7
  %.pre6 = trunc nuw i8 %.pre to i1
  %.pre7 = trunc nuw i8 %.pre5 to i1
  br label %11

11:                                               ; preds = %9, %3
  %.pre-phi8 = phi i1 [ %.pre7, %9 ], [ %7, %3 ]
  %.pre-phi = phi i1 [ %.pre6, %9 ], [ %5, %3 ]
  %12 = xor i1 %.pre-phi8, true
  %13 = select i1 %.pre-phi, i1 true, i1 %12
  br i1 %13, label %14, label %21, !prof !9

14:                                               ; preds = %11
  %15 = tail call fastcc i32 @H5SL__release_common(ptr noundef %0, ptr noundef %1, ptr noundef %2)
  %16 = icmp slt i32 %15, 0
  br i1 %16, label %17, label %21

17:                                               ; preds = %14
  %18 = load i64, ptr @H5E_SLIST_g, align 8, !tbaa !13
  %19 = load i64, ptr @H5E_CANTFREE_g, align 8, !tbaa !13
  %20 = tail call i32 (ptr, ptr, i32, i64, i64, ptr, ...) @H5E_printf_stack(ptr noundef nonnull @.str, ptr noundef nonnull @__func__.H5SL_free, i32 noundef 2198, i64 noundef %18, i64 noundef %19, ptr noundef nonnull @.str.4) #9
  br label %21

21:                                               ; preds = %17, %14, %11
  %.0 = phi i32 [ -1, %17 ], [ 0, %14 ], [ 0, %11 ]
  ret i32 %.0
}